target datalayout = "e-m:e-p270:32:32-p271:32:32-p272:64:64-i64:64-i128:128-f80:128-n8:16:32:64-S128"
target triple = "x86_64-pc-linux-gnu"

%struct.nstime_t = type { i64, i32 }
%struct._packet_info = type { ptr, ptr, i32, i32, %struct.nstime_t, %struct.nstime_t, %struct.nstime_t, i8, ptr, ptr, ptr, ptr, %struct._address, %struct._address, %struct._address, %struct._address, %struct._address, %struct._address, i32, ptr, i8, [3 x i8], %struct.anon, i32, i32, i32, i32, ptr, i8, ptr, ptr, i16, i16, i32, i32, i16, i32, i32, ptr, ptr, ptr, i8, i8, i16, i16, i16, i32, i16, i16, ptr, ptr, ptr, ptr, ptr, i32, i32 }
%struct._address = type { i32, i32, ptr, ptr }
%struct.anon = type { i8, [3 x i8] }

@hf_windows_sockaddr_family = internal global i32 0, align 4
@hf_windows_sockaddr_port = internal global i32 0, align 4
@hf_windows_sockaddr_in_addr = internal global i32 0, align 4
@hf_windows_sockaddr_in6_flowinfo = internal global i32 0, align 4
@hf_windows_sockaddr_in6_addr = internal global i32 0, align 4
@hf_windows_sockaddr_in6_scope_id = internal global i32 0, align 4
@ett_windows_sockaddr = internal global i32 0, align 4
@.str.1545 = private unnamed_addr constant [15 x i8] c"Socket Address\00", align 1
@.str.1546 = private unnamed_addr constant [22 x i8] c", Family: %d (0x%04x)\00", align 1
@.str.1547 = private unnamed_addr constant [11 x i8] c", IPv4: %s\00", align 1
@.str.1548 = private unnamed_addr constant [11 x i8] c", IPv6: %s\00", align 1

; Function Attrs: null_pointer_is_valid sspstrong uwtable
define internal i32 @dissect_windows_sockaddr_in6(ptr noundef %0, ptr noundef %1, ptr noundef %2, i32 noundef %3, i32 noundef %4) #0 {
  %6 = alloca ptr, align 8
  %7 = alloca ptr, align 8
  %8 = alloca ptr, align 8
  %9 = alloca i32, align 4
  %10 = alloca i32, align 4
  %11 = alloca ptr, align 8
  %12 = alloca ptr, align 8
  %13 = alloca ptr, align 8
  store ptr %0, ptr %6, align 8
  store ptr %1, ptr %7, align 8
  store ptr %2, ptr %8, align 8
  store i32 %3, ptr %9, align 4
  store i32 %4, ptr %10, align 4
  call void @llvm.lifetime.start.p0(i64 8, ptr %11) #13
  call void @llvm.lifetime.start.p0(i64 8, ptr %12) #13
  call void @llvm.lifetime.start.p0(i64 8, ptr %13) #13
  %14 = load i32, ptr %10, align 4
  %15 = icmp eq i32 %14, -1
  br i1 %15, label %16, label %17

16:                                               ; preds = %5
  store i32 26, ptr %10, align 4
  br label %17

17:                                               ; preds = %16, %5
  %18 = load ptr, ptr %8, align 8
  %19 = load ptr, ptr %6, align 8
  %20 = load i32, ptr %9, align 4
  %21 = load i32, ptr %10, align 4
  %22 = load i32, ptr @ett_windows_sockaddr, align 4
  %23 = call ptr @proto_tree_add_subtree(ptr noundef %18, ptr noundef %19, i32 noundef %20, i32 noundef %21, i32 noundef %22, ptr noundef %11, ptr noundef @.str.1545)
  store ptr %23, ptr %12, align 8
  %24 = load ptr, ptr %8, align 8
  %25 = call ptr @proto_tree_get_parent(ptr noundef %24)
  store ptr %25, ptr %13, align 8
  %26 = load ptr, ptr %12, align 8
  %27 = load i32, ptr @hf_windows_sockaddr_family, align 4
  %28 = load ptr, ptr %6, align 8
  %29 = load i32, ptr %9, align 4
  %30 = call ptr @proto_tree_add_item(ptr noundef %26, i32 noundef %27, ptr noundef %28, i32 noundef %29, i32 noundef 2, i32 noundef -2147483648)
  %31 = load i32, ptr %9, align 4
  %32 = add i32 %31, 2
  store i32 %32, ptr %9, align 4
  %33 = load ptr, ptr %12, align 8
  %34 = load i32, ptr @hf_windows_sockaddr_port, align 4
  %35 = load ptr, ptr %6, align 8
  %36 = load i32, ptr %9, align 4
  %37 = call ptr @proto_tree_add_item(ptr noundef %33, i32 noundef %34, ptr noundef %35, i32 noundef %36, i32 noundef 2, i32 noundef -2147483648)
  %38 = load i32, ptr %9, align 4
  %39 = add i32 %38, 2
  store i32 %39, ptr %9, align 4
  %40 = load ptr, ptr %12, align 8
  %41 = load i32, ptr @hf_windows_sockaddr_in6_flowinfo, align 4
  %42 = load ptr, ptr %6, align 8
  %43 = load i32, ptr %9, align 4
  %44 = call ptr @proto_tree_add_item(ptr noundef %40, i32 noundef %41, ptr noundef %42, i32 noundef %43, i32 noundef 2, i32 noundef -2147483648)
  %45 = load i32, ptr %9, align 4
  %46 = add i32 %45, 4
  store i32 %46, ptr %9, align 4
  %47 = load ptr, ptr %12, align 8
  %48 = load i32, ptr @hf_windows_sockaddr_in6_addr, align 4
  %49 = load ptr, ptr %6, align 8
  %50 = load i32, ptr %9, align 4
  %51 = call ptr @proto_tree_add_item(ptr noundef %47, i32 noundef %48, ptr noundef %49, i32 noundef %50, i32 noundef 16, i32 noundef 0)
  %52 = load ptr, ptr %11, align 8
  %53 = load ptr, ptr %7, align 8
  %54 = getelementptr inbounds nuw %struct._packet_info, ptr %53, i32 0, i32 51
  %55 = load ptr, ptr %54, align 8
  %56 = load ptr, ptr %6, align 8
  %57 = load i32, ptr %9, align 4
  %58 = call ptr @tvb_address_to_str(ptr noundef %55, ptr noundef %56, i32 noundef 3, i32 noundef %57)
  call void (ptr, ptr, ...) @proto_item_append_text(ptr noundef %52, ptr noundef @.str.1548, ptr noundef %58)
  %59 = load ptr, ptr %13, align 8
  %60 = load ptr, ptr %7, align 8
  %61 = getelementptr inbounds nuw %struct._packet_info, ptr %60, i32 0, i32 51
  %62 = load ptr, ptr %61, align 8
  %63 = load ptr, ptr %6, align 8
  %64 = load i32, ptr %9, align 4
  %65 = call ptr @tvb_address_to_str(ptr noundef %62, ptr noundef %63, i32 noundef 3, i32 noundef %64)
  call void (ptr, ptr, ...) @proto_item_append_text(ptr noundef %59, ptr noundef @.str.1548, ptr noundef %65)
  %66 = load i32, ptr %9, align 4
  %67 = add i32 %66, 16
  store i32 %67, ptr %9, align 4
  %68 = load ptr, ptr %12, align 8
  %69 = load i32, ptr @hf_windows_sockaddr_in6_scope_id, align 4
  %70 = load ptr, ptr %6, align 8
  %71 = load i32, ptr %9, align 4
  %72 = call ptr @proto_tree_add_item(ptr noundef %68, i32 noundef %69, ptr noundef %70, i32 noundef %71, i32 noundef 2, i32 noundef -2147483648)
  %73 = load i32, ptr %9, align 4
  %74 = add i32 %73, 2
  store i32 %74, ptr %9, align 4
  %75 = load i32, ptr %9, align 4
  call void @llvm.lifetime.end.p0(i64 8, ptr %13) #13
  call void @llvm.lifetime.end.p0(i64 8, ptr %12) #13
  call void @llvm.lifetime.end.p0(i64 8, ptr %11) #13
  ret i32 %75
}

; Function Attrs: null_pointer_is_valid sspstrong uwtable
define internal i32 @dissect_windows_sockaddr_in(ptr noundef %0, ptr noundef %1, ptr noundef %2, i32 noundef %3, i32 noundef %4) #0 {
  %6 = alloca ptr, align 8
  %7 = alloca ptr, align 8
  %8 = alloca ptr, align 8
  %9 = alloca i32, align 4
  %10 = alloca i32, align 4
  %11 = alloca ptr, align 8
  %12 = alloca ptr, align 8
  %13 = alloca ptr, align 8
  store ptr %0, ptr %6, align 8
  store ptr %1, ptr %7, align 8
  store ptr %2, ptr %8, align 8
  store i32 %3, ptr %9, align 4
  store i32 %4, ptr %10, align 4
  call void @llvm.lifetime.start.p0(i64 8, ptr %11) #13
  call void @llvm.lifetime.start.p0(i64 8, ptr %12) #13
  call void @llvm.lifetime.start.p0(i64 8, ptr %13) #13
  %14 = load i32, ptr %10, align 4
  %15 = icmp eq i32 %14, -1
  br i1 %15, label %16, label %17

16:                                               ; preds = %5
  store i32 8, ptr %10, align 4
  br label %17

17:                                               ; preds = %16, %5
  %18 = load ptr, ptr %8, align 8
  %19 = load ptr, ptr %6, align 8
  %20 = load i32, ptr %9, align 4
  %21 = load i32, ptr %10, align 4
  %22 = load i32, ptr @ett_windows_sockaddr, align 4
  %23 = call ptr @proto_tree_add_subtree(ptr noundef %18, ptr noundef %19, i32 noundef %20, i32 noundef %21, i32 noundef %22, ptr noundef %11, ptr noundef @.str.1545)
  store ptr %23, ptr %12, align 8
  %24 = load ptr, ptr %8, align 8
  %25 = call ptr @proto_tree_get_parent(ptr noundef %24)
  store ptr %25, ptr %13, align 8
  %26 = load ptr, ptr %12, align 8
  %27 = load i32, ptr @hf_windows_sockaddr_family, align 4
  %28 = load ptr, ptr %6, align 8
  %29 = load i32, ptr %9, align 4
  %30 = call ptr @proto_tree_add_item(ptr noundef %26, i32 noundef %27, ptr noundef %28, i32 noundef %29, i32 noundef 2, i32 noundef -2147483648)
  %31 = load i32, ptr %9, align 4
  %32 = add i32 %31, 2
  store i32 %32, ptr %9, align 4
  %33 = load ptr, ptr %12, align 8
  %34 = load i32, ptr @hf_windows_sockaddr_port, align 4
  %35 = load ptr, ptr %6, align 8
  %36 = load i32, ptr %9, align 4
  %37 = call ptr @proto_tree_add_item(ptr noundef %33, i32 noundef %34, ptr noundef %35, i32 noundef %36, i32 noundef 2, i32 noundef -2147483648)
  %38 = load i32, ptr %9, align 4
  %39 = add i32 %38, 2
  store i32 %39, ptr %9, align 4
  %40 = load ptr, ptr %12, align 8
  %41 = load i32, ptr @hf_windows_sockaddr_in_addr, align 4
  %42 = load ptr, ptr %6, align 8
  %43 = load i32, ptr %9, align 4
  %44 = call ptr @proto_tree_add_item(ptr noundef %40, i32 noundef %41, ptr noundef %42, i32 noundef %43, i32 noundef 4, i32 noundef 0)
  %45 = load ptr, ptr %11, align 8
  %46 = load ptr, ptr %7, align 8
  %47 = getelementptr inbounds nuw %struct._packet_info, ptr %46, i32 0, i32 51
  %48 = load ptr, ptr %47, align 8
  %49 = load ptr, ptr %6, align 8
  %50 = load i32, ptr %9, align 4
  %51 = call ptr @tvb_address_to_str(ptr noundef %48, ptr noundef %49, i32 noundef 2, i32 noundef %50)
  call void (ptr, ptr, ...) @proto_item_append_text(ptr noundef %45, ptr noundef @.str.1547, ptr noundef %51)
  %52 = load ptr, ptr %13, align 8
  %53 = load ptr, ptr %7, align 8
  %54 = getelementptr inbounds nuw %struct._packet_info, ptr %53, i32 0, i32 51
  %55 = load ptr, ptr %54, align 8
  %56 = load ptr, ptr %6, align 8
  %57 = load i32, ptr %9, align 4
  %58 = call ptr @tvb_address_to_str(ptr noundef %55, ptr noundef %56, i32 noundef 2, i32 noundef %57)
  call void (ptr, ptr, ...) @proto_item_append_text(ptr noundef %52, ptr noundef @.str.1547, ptr noundef %58)
  %59 = load i32, ptr %9, align 4
  %60 = add i32 %59, 4
  store i32 %60, ptr %9, align 4
  %61 = load i32, ptr %9, align 4
  call void @llvm.lifetime.end.p0(i64 8, ptr %13) #13
  call void @llvm.lifetime.end.p0(i64 8, ptr %12) #13
  call void @llvm.lifetime.end.p0(i64 8, ptr %11) #13
  ret i32 %61
}

; Function Attrs: null_pointer_is_valid sspstrong uwtable
define internal i32 @dissect_windows_sockaddr_storage(ptr noundef %0, ptr noundef %1, ptr noundef %2, i32 noundef %3, i32 noundef %4) #0 {
  %6 = alloca i32, align 4
  %7 = alloca ptr, align 8
  %8 = alloca ptr, align 8
  %9 = alloca ptr, align 8
  %10 = alloca i32, align 4
  %11 = alloca i32, align 4
  %12 = alloca ptr, align 8
  %13 = alloca ptr, align 8
  %14 = alloca ptr, align 8
  %15 = alloca i16, align 2
  %16 = alloca i32, align 4
  store ptr %0, ptr %7, align 8
  store ptr %1, ptr %8, align 8
  store ptr %2, ptr %9, align 8
  store i32 %3, ptr %10, align 4
  store i32 %4, ptr %11, align 4
  call void @llvm.lifetime.start.p0(i64 8, ptr %12) #13
  call void @llvm.lifetime.start.p0(i64 8, ptr %13) #13
  call void @llvm.lifetime.start.p0(i64 8, ptr %14) #13
  call void @llvm.lifetime.start.p0(i64 2, ptr %15) #13
  %17 = load ptr, ptr %7, align 8
  %18 = load i32, ptr %10, align 4
  %19 = call zeroext i16 @tvb_get_letohs(ptr noundef %17, i32 noundef %18)
  store i16 %19, ptr %15, align 2
  %20 = load i16, ptr %15, align 2
  %21 = zext i16 %20 to i32
  switch i32 %21, label %36 [
    i32 2, label %22
    i32 23, label %29
  ]

22:                                               ; preds = %5
  %23 = load ptr, ptr %7, align 8
  %24 = load ptr, ptr %8, align 8
  %25 = load ptr, ptr %9, align 8
  %26 = load i32, ptr %10, align 4
  %27 = load i32, ptr %11, align 4
  %28 = call i32 @dissect_windows_sockaddr_in(ptr noundef %23, ptr noundef %24, ptr noundef %25, i32 noundef %26, i32 noundef %27)
  store i32 %28, ptr %6, align 4
  store i32 1, ptr %16, align 4
  br label %63

29:                                               ; preds = %5
  %30 = load ptr, ptr %7, align 8
  %31 = load ptr, ptr %8, align 8
  %32 = load ptr, ptr %9, align 8
  %33 = load i32, ptr %10, align 4
  %34 = load i32, ptr %11, align 4
  %35 = call i32 @dissect_windows_sockaddr_in6(ptr noundef %30, ptr noundef %31, ptr noundef %32, i32 noundef %33, i32 noundef %34)
  store i32 %35, ptr %6, align 4
  store i32 1, ptr %16, align 4
  br label %63

36:                                               ; preds = %5
  %37 = load ptr, ptr %9, align 8
  %38 = load ptr, ptr %7, align 8
  %39 = load i32, ptr %10, align 4
  %40 = load i32, ptr %11, align 4
  %41 = load i32, ptr @ett_windows_sockaddr, align 4
  %42 = call ptr @proto_tree_add_subtree(ptr noundef %37, ptr noundef %38, i32 noundef %39, i32 noundef %40, i32 noundef %41, ptr noundef %12, ptr noundef @.str.1545)
  store ptr %42, ptr %13, align 8
  %43 = load ptr, ptr %9, align 8
  %44 = call ptr @proto_tree_get_parent(ptr noundef %43)
  store ptr %44, ptr %14, align 8
  %45 = load ptr, ptr %13, align 8
  %46 = load i32, ptr @hf_windows_sockaddr_family, align 4
  %47 = load ptr, ptr %7, align 8
  %48 = load i32, ptr %10, align 4
  %49 = call ptr @proto_tree_add_item(ptr noundef %45, i32 noundef %46, ptr noundef %47, i32 noundef %48, i32 noundef 2, i32 noundef -2147483648)
  %50 = load ptr, ptr %12, align 8
  %51 = load i16, ptr %15, align 2
  %52 = zext i16 %51 to i32
  %53 = load i16, ptr %15, align 2
  %54 = zext i16 %53 to i32
  call void (ptr, ptr, ...) @proto_item_append_text(ptr noundef %50, ptr noundef @.str.1546, i32 noundef %52, i32 noundef %54)
  %55 = load ptr, ptr %14, align 8
  %56 = load i16, ptr %15, align 2
  %57 = zext i16 %56 to i32
  %58 = load i16, ptr %15, align 2
  %59 = zext i16 %58 to i32
  call void (ptr, ptr, ...) @proto_item_append_text(ptr noundef %55, ptr noundef @.str.1546, i32 noundef %57, i32 noundef %59)
  %60 = load i32, ptr %10, align 4
  %61 = load i32, ptr %11, align 4
  %62 = add i32 %60, %61
  store i32 %62, ptr %6, align 4
  store i32 1, ptr %16, align 4
  br label %63

63:                                               ; preds = %36, %29, %22
  call void @llvm.lifetime.end.p0(i64 2, ptr %15) #13
  call void @llvm.lifetime.end.p0(i64 8, ptr %14) #13
  call void @llvm.lifetime.end.p0(i64 8, ptr %13) #13
  call void @llvm.lifetime.end.p0(i64 8, ptr %12) #13
  %64 = load i32, ptr %6, align 4
  ret i32 %64
}