; Function Attrs: null_pointer_is_valid sspstrong uwtable
define internal fastcc noundef i32 @dissect_windows_sockaddr_storage(ptr noundef %0, ptr noundef readonly captures(none) %1, ptr noundef %2, i32 noundef %3) unnamed_addr #0 {
  %5 = alloca ptr, align 8
  %6 = alloca ptr, align 8
  %7 = alloca ptr, align 8
  call void @llvm.lifetime.start.p0(i64 8, ptr nonnull %7) #13
  %8 = tail call zeroext i16 @tvb_get_letohs(ptr noundef %0, i32 noundef %3)
  switch i16 %8, label %53 [
    i16 2, label %9
    i16 23, label %28
  ]

9:                                                ; preds = %4
  call void @llvm.lifetime.start.p0(i64 8, ptr nonnull %6) #13
  %10 = load i32, ptr @ett_windows_sockaddr, align 4
  %11 = call ptr @proto_tree_add_subtree(ptr noundef %2, ptr noundef %0, i32 noundef %3, i32 noundef 8, i32 noundef %10, ptr noundef nonnull %6, ptr noundef nonnull @.str.1545)
  %12 = call ptr @proto_tree_get_parent(ptr noundef %2)
  %13 = load i32, ptr @hf_windows_sockaddr_family, align 4
  %14 = call ptr @proto_tree_add_item(ptr noundef %11, i32 noundef %13, ptr noundef %0, i32 noundef %3, i32 noundef 2, i32 noundef -2147483648)
  %15 = add i32 %3, 2
  %16 = load i32, ptr @hf_windows_sockaddr_port, align 4
  %17 = call ptr @proto_tree_add_item(ptr noundef %11, i32 noundef %16, ptr noundef %0, i32 noundef %15, i32 noundef 2, i32 noundef -2147483648)
  %18 = add i32 %3, 4
  %19 = load i32, ptr @hf_windows_sockaddr_in_addr, align 4
  %20 = call ptr @proto_tree_add_item(ptr noundef %11, i32 noundef %19, ptr noundef %0, i32 noundef %18, i32 noundef 4, i32 noundef 0)
  %21 = load ptr, ptr %6, align 8
  %22 = getelementptr inbounds nuw i8, ptr %1, i64 408
  %23 = load ptr, ptr %22, align 8
  %24 = call ptr @tvb_address_to_str(ptr noundef %23, ptr noundef %0, i32 noundef 2, i32 noundef %18)
  call void (ptr, ptr, ...) @proto_item_append_text(ptr noundef %21, ptr noundef nonnull @.str.1547, ptr noundef %24)
  %25 = load ptr, ptr %22, align 8
  %26 = call ptr @tvb_address_to_str(ptr noundef %25, ptr noundef %0, i32 noundef 2, i32 noundef %18)
  call void (ptr, ptr, ...) @proto_item_append_text(ptr noundef %12, ptr noundef nonnull @.str.1547, ptr noundef %26)
  %27 = add i32 %3, 8
  call void @llvm.lifetime.end.p0(i64 8, ptr nonnull %6) #13
  br label %62

28:                                               ; preds = %4
  call void @llvm.lifetime.start.p0(i64 8, ptr nonnull %5) #13
  %29 = load i32, ptr @ett_windows_sockaddr, align 4
  %30 = call ptr @proto_tree_add_subtree(ptr noundef %2, ptr noundef %0, i32 noundef %3, i32 noundef 26, i32 noundef %29, ptr noundef nonnull %5, ptr noundef nonnull @.str.1545)
  %31 = call ptr @proto_tree_get_parent(ptr noundef %2)
  %32 = load i32, ptr @hf_windows_sockaddr_family, align 4
  %33 = call ptr @proto_tree_add_item(ptr noundef %30, i32 noundef %32, ptr noundef %0, i32 noundef %3, i32 noundef 2, i32 noundef -2147483648)
  %34 = add i32 %3, 2
  %35 = load i32, ptr @hf_windows_sockaddr_port, align 4
  %36 = call ptr @proto_tree_add_item(ptr noundef %30, i32 noundef %35, ptr noundef %0, i32 noundef %34, i32 noundef 2, i32 noundef -2147483648)
  %37 = add i32 %3, 4
  %38 = load i32, ptr @hf_windows_sockaddr_in6_flowinfo, align 4
  %39 = call ptr @proto_tree_add_item(ptr noundef %30, i32 noundef %38, ptr noundef %0, i32 noundef %37, i32 noundef 2, i32 noundef -2147483648)
  %40 = add i32 %3, 8
  %41 = load i32, ptr @hf_windows_sockaddr_in6_addr, align 4
  %42 = call ptr @proto_tree_add_item(ptr noundef %30, i32 noundef %41, ptr noundef %0, i32 noundef %40, i32 noundef 16, i32 noundef 0)
  %43 = load ptr, ptr %5, align 8
  %44 = getelementptr inbounds nuw i8, ptr %1, i64 408
  %45 = load ptr, ptr %44, align 8
  %46 = call ptr @tvb_address_to_str(ptr noundef %45, ptr noundef %0, i32 noundef 3, i32 noundef %40)
  call void (ptr, ptr, ...) @proto_item_append_text(ptr noundef %43, ptr noundef nonnull @.str.1548, ptr noundef %46)
  %47 = load ptr, ptr %44, align 8
  %48 = call ptr @tvb_address_to_str(ptr noundef %47, ptr noundef %0, i32 noundef 3, i32 noundef %40)
  call void (ptr, ptr, ...) @proto_item_append_text(ptr noundef %31, ptr noundef nonnull @.str.1548, ptr noundef %48)
  %49 = add i32 %3, 24
  %50 = load i32, ptr @hf_windows_sockaddr_in6_scope_id, align 4
  %51 = call ptr @proto_tree_add_item(ptr noundef %30, i32 noundef %50, ptr noundef %0, i32 noundef %49, i32 noundef 2, i32 noundef -2147483648)
  %52 = add i32 %3, 26
  call void @llvm.lifetime.end.p0(i64 8, ptr nonnull %5) #13
  br label %62

53:                                               ; preds = %4
  %54 = zext i16 %8 to i32
  %55 = load i32, ptr @ett_windows_sockaddr, align 4
  %56 = call ptr @proto_tree_add_subtree(ptr noundef %2, ptr noundef %0, i32 noundef %3, i32 noundef -1, i32 noundef %55, ptr noundef nonnull %7, ptr noundef nonnull @.str.1545)
  %57 = call ptr @proto_tree_get_parent(ptr noundef %2)
  %58 = load i32, ptr @hf_windows_sockaddr_family, align 4
  %59 = call ptr @proto_tree_add_item(ptr noundef %56, i32 noundef %58, ptr noundef %0, i32 noundef %3, i32 noundef 2, i32 noundef -2147483648)
  %60 = load ptr, ptr %7, align 8
  call void (ptr, ptr, ...) @proto_item_append_text(ptr noundef %60, ptr noundef nonnull @.str.1546, i32 noundef %54, i32 noundef %54)
  call void (ptr, ptr, ...) @proto_item_append_text(ptr noundef %57, ptr noundef nonnull @.str.1546, i32 noundef %54, i32 noundef %54)
  %61 = add i32 %3, -1
  br label %62

62:                                               ; preds = %53, %28, %9
  %.0 = phi i32 [ %61, %53 ], [ %52, %28 ], [ %27, %9 ]
  call void @llvm.lifetime.end.p0(i64 8, ptr nonnull %7) #13
  ret i32 %.0
}